0000 0000000 min_caml_start:
0000 0000000 	addi	%r1, %r0, 0
0001 0000004 	sw	%r31, 0(%r30)
0002 0000008 	addi	%r30, %r30, 1
0003 000000c 	jal	yloop.213
0004 0000010 	addi	%r30, %r30, -1
0005 0000014 	lw	%r31, 0(%r30)
0006 0000018 	in	%r1
0007 000001c 	j	min_caml_start
0008 0000020 dbl.211:
0008 0000020 	add.s	%f0, %f0, %f0
0009 0000024 	jr	%r31
0010 0000028 iloop.227:
0010 0000028 	addi	%r26, %r0, 0
0011 000002c 	bne	%r1, %r26, beq_else.451
0012 0000030 	addi	%r1, %r0, 1
0013 0000034 	j	min_caml_print_int
0014 0000038 beq_else.451:
0014 0000038 	sub.s	%f2, %f2, %f3
0015 000003c 	add.s	%f2, %f2, %f4
0016 0000040 	sw.s	%f4, 0(%r30)
0017 0000044 	sw	%r1, 1(%r30)
0018 0000048 	sw.s	%f2, 2(%r30)
0019 000004c 	sw.s	%f5, 3(%r30)
0020 0000050 	sw.s	%f1, 4(%r30)
0021 0000054 	sw	%r31, 5(%r30)
0022 0000058 	addi	%r30, %r30, 6
0023 000005c 	jal	dbl.211
0024 0000060 	addi	%r30, %r30, -6
0025 0000064 	lw	%r31, 5(%r30)
0026 0000068 	lw.s	%f1, 4(%r30)
0027 000006c 	mul.s	%f0, %f0, %f1
0028 0000070 	lw.s	%f5, 3(%r30)
0029 0000074 	add.s	%f1, %f0, %f5
0030 0000078 	lw.s	%f0, 2(%r30)
0031 000007c 	mul.s	%f2, %f0, %f0
0032 0000080 	mul.s	%f3, %f1, %f1
0033 0000084 	add.s	%f4, %f2, %f3
0034 0000088 	la	%r1, l.423
0036 0000090 	lw.s	%f6, 0(%r1)
0037 0000094 	c.le.s	0, %f4, %f6
0038 0000098 	bf.s	0, bt.s_else.452
0039 000009c 	lw	%r1, 1(%r30)
0040 00000a0 	addi	%r1, %r1, -1
0041 00000a4 	lw.s	%f4, 0(%r30)
0042 00000a8 	j	iloop.227
0043 00000ac bt.s_else.452:
0043 00000ac 	addi	%r1, %r0, 0
0044 00000b0 	j	min_caml_print_int
0045 00000b4 xloop.217:
0045 00000b4 	addi	%r26, %r0, 1
0046 00000b8 	slt	%r28, %r26, %r1
0047 00000bc 	beq	%r28, %r0, bne_else.453
0048 00000c0 	jr	%r31
0049 00000c4 bne_else.453:
0049 00000c4 	itof	%f0, %r1
0050 00000c8 	sw	%r1, 0(%r30)
0051 00000cc 	sw	%r2, 1(%r30)
0052 00000d0 	sw	%r31, 2(%r30)
0053 00000d4 	addi	%r30, %r30, 3
0054 00000d8 	jal	dbl.211
0055 00000dc 	addi	%r30, %r30, -3
0056 00000e0 	lw	%r31, 2(%r30)
0057 00000e4 	la	%r1, l.425
0059 00000ec 	lw.s	%f1, 0(%r1)
0060 00000f0 	div.s	%f0, %f0, %f1
0061 00000f4 	la	%r1, l.427
0063 00000fc 	lw.s	%f1, 0(%r1)
0064 0000100 	sub.s	%f0, %f0, %f1
0065 0000104 	lw	%r1, 1(%r30)
0066 0000108 	itof	%f1, %r1
0067 000010c 	sw.s	%f0, 2(%r30)
0068 0000110 	mov.s	%f0, %f1
0069 0000114 	sw	%r31, 3(%r30)
0070 0000118 	addi	%r30, %r30, 4
0071 000011c 	jal	dbl.211
0072 0000120 	addi	%r30, %r30, -4
0073 0000124 	lw	%r31, 3(%r30)
0074 0000128 	la	%r1, l.425
0076 0000130 	lw.s	%f1, 0(%r1)
0077 0000134 	div.s	%f0, %f0, %f1
0078 0000138 	la	%r1, l.430
0080 0000140 	lw.s	%f1, 0(%r1)
0081 0000144 	sub.s	%f5, %f0, %f1
0082 0000148 	addi	%r1, %r0, 1000
0083 000014c 	la	%r2, l.432
0085 0000154 	lw.s	%f0, 0(%r2)
0086 0000158 	la	%r2, l.432
0088 0000160 	lw.s	%f1, 0(%r2)
0089 0000164 	la	%r2, l.432
0091 000016c 	lw.s	%f2, 0(%r2)
0092 0000170 	la	%r2, l.432
0094 0000178 	lw.s	%f3, 0(%r2)
0095 000017c 	lw.s	%f4, 2(%r30)
0096 0000180 	sw	%r31, 3(%r30)
0097 0000184 	addi	%r30, %r30, 4
0098 0000188 	jal	iloop.227
0099 000018c 	addi	%r30, %r30, -4
0100 0000190 	lw	%r31, 3(%r30)
0101 0000194 	lw	%r1, 0(%r30)
0102 0000198 	addi	%r1, %r1, 1
0103 000019c 	lw	%r2, 1(%r30)
0104 00001a0 	j	xloop.217
0105 00001a4 yloop.213:
0105 00001a4 	addi	%r26, %r0, 1
0106 00001a8 	slt	%r28, %r26, %r1
0107 00001ac 	beq	%r28, %r0, bne_else.455
0108 00001b0 	jr	%r31
0109 00001b4 bne_else.455:
0109 00001b4 	addi	%r2, %r0, 0
0110 00001b8 	sw	%r1, 0(%r30)
0111 00001bc 	addi	%r26, %r2, 0
0112 00001c0 	addi	%r2, %r1, 0
0113 00001c4 	addi	%r1, %r26, 0
0114 00001c8 	sw	%r31, 1(%r30)
0115 00001cc 	addi	%r30, %r30, 2
0116 00001d0 	jal	xloop.217
0117 00001d4 	addi	%r30, %r30, -2
0118 00001d8 	lw	%r31, 1(%r30)
0119 00001dc 	lw	%r1, 0(%r30)
0120 00001e0 	addi	%r1, %r1, 1
0121 00001e4 	j	yloop.213
0122 00001e8 min_caml_print_int:
0122 00001e8 	out	%r1
0123 00001ec 	jr	%r31
