0000 0000000 min_caml_start:
0000 0000000 	addi	%r1, %r0, 1
0001 0000004 	addi	%r2, %r0, 0
0002 0000008 	sw	%r31, 0(%r30)
0003 000000c 	addi	%r30, %r30, 1
0004 0000010 	jal	min_caml_create_array
0005 0000014 	addi	%r30, %r30, -1
0006 0000018 	lw	%r31, 0(%r30)
0007 000001c 	addi	%r1, %r0, 0
0008 0000020 	la	%r2, l.612
0010 0000028 	lw.s	%f0, 0(%r2)
0011 000002c 	sw	%r31, 0(%r30)
0012 0000030 	addi	%r30, %r30, 1
0013 0000034 	jal	min_caml_create_float_array
0014 0000038 	addi	%r30, %r30, -1
0015 000003c 	lw	%r31, 0(%r30)
0016 0000040 	addi	%r2, %r0, 60
0017 0000044 	addi	%r3, %r0, 0
0018 0000048 	addi	%r4, %r0, 0
0019 000004c 	addi	%r5, %r0, 0
0020 0000050 	addi	%r6, %r0, 0
0021 0000054 	addi	%r7, %r0, 0
0022 0000058 	addi	%r8, %r29, 0
0023 000005c 	addi	%r29, %r29, 11
0024 0000060 	sw	%r1, 10(%r8)
0025 0000064 	sw	%r1, 9(%r8)
0026 0000068 	sw	%r1, 8(%r8)
0027 000006c 	sw	%r1, 7(%r8)
0028 0000070 	sw	%r7, 6(%r8)
0029 0000074 	sw	%r1, 5(%r8)
0030 0000078 	sw	%r1, 4(%r8)
0031 000007c 	sw	%r6, 3(%r8)
0032 0000080 	sw	%r5, 2(%r8)
0033 0000084 	sw	%r4, 1(%r8)
0034 0000088 	sw	%r3, 0(%r8)
0035 000008c 	addi	%r1, %r8, 0
0036 0000090 	addi	%r26, %r2, 0
0037 0000094 	addi	%r2, %r1, 0
0038 0000098 	addi	%r1, %r26, 0
0039 000009c 	sw	%r31, 0(%r30)
0040 00000a0 	addi	%r30, %r30, 1
0041 00000a4 	jal	min_caml_create_array
0042 00000a8 	addi	%r30, %r30, -1
0043 00000ac 	lw	%r31, 0(%r30)
0044 00000b0 	addi	%r1, %r0, 3
0045 00000b4 	la	%r2, l.612
0047 00000bc 	lw.s	%f0, 0(%r2)
0048 00000c0 	sw	%r31, 0(%r30)
0049 00000c4 	addi	%r30, %r30, 1
0050 00000c8 	jal	min_caml_create_float_array
0051 00000cc 	addi	%r30, %r30, -1
0052 00000d0 	lw	%r31, 0(%r30)
0053 00000d4 	addi	%r1, %r0, 3
0054 00000d8 	la	%r2, l.612
0056 00000e0 	lw.s	%f0, 0(%r2)
0057 00000e4 	sw	%r31, 0(%r30)
0058 00000e8 	addi	%r30, %r30, 1
0059 00000ec 	jal	min_caml_create_float_array
0060 00000f0 	addi	%r30, %r30, -1
0061 00000f4 	lw	%r31, 0(%r30)
0062 00000f8 	addi	%r1, %r0, 3
0063 00000fc 	la	%r2, l.612
0065 0000104 	lw.s	%f0, 0(%r2)
0066 0000108 	sw	%r31, 0(%r30)
0067 000010c 	addi	%r30, %r30, 1
0068 0000110 	jal	min_caml_create_float_array
0069 0000114 	addi	%r30, %r30, -1
0070 0000118 	lw	%r31, 0(%r30)
0071 000011c 	addi	%r1, %r0, 1
0072 0000120 	la	%r2, l.629
0074 0000128 	lw.s	%f0, 0(%r2)
0075 000012c 	sw	%r31, 0(%r30)
0076 0000130 	addi	%r30, %r30, 1
0077 0000134 	jal	min_caml_create_float_array
0078 0000138 	addi	%r30, %r30, -1
0079 000013c 	lw	%r31, 0(%r30)
0080 0000140 	addi	%r1, %r0, 50
0081 0000144 	addi	%r2, %r0, 1
0082 0000148 	addi	%r3, %r0, -1
0083 000014c 	sw	%r1, 0(%r30)
0084 0000150 	addi	%r1, %r2, 0
0085 0000154 	addi	%r2, %r3, 0
0086 0000158 	sw	%r31, 1(%r30)
0087 000015c 	addi	%r30, %r30, 2
0088 0000160 	jal	min_caml_create_array
0089 0000164 	addi	%r30, %r30, -2
0090 0000168 	lw	%r31, 1(%r30)
0091 000016c 	addi	%r2, %r1, 0
0092 0000170 	lw	%r1, 0(%r30)
0093 0000174 	sw	%r31, 1(%r30)
0094 0000178 	addi	%r30, %r30, 2
0095 000017c 	jal	min_caml_create_array
0096 0000180 	addi	%r30, %r30, -2
0097 0000184 	lw	%r31, 1(%r30)
0098 0000188 	addi	%r2, %r0, 1
0099 000018c 	addi	%r3, %r0, 1
0100 0000190 	addi	%r1, %r1, 0
0101 0000194 	lw	%r1, 0(%r1)
0102 0000198 	sw	%r2, 1(%r30)
0103 000019c 	addi	%r2, %r1, 0
0104 00001a0 	addi	%r1, %r3, 0
0105 00001a4 	sw	%r31, 2(%r30)
0106 00001a8 	addi	%r30, %r30, 3
0107 00001ac 	jal	min_caml_create_array
0108 00001b0 	addi	%r30, %r30, -3
0109 00001b4 	lw	%r31, 2(%r30)
0110 00001b8 	addi	%r2, %r1, 0
0111 00001bc 	lw	%r1, 1(%r30)
0112 00001c0 	sw	%r31, 2(%r30)
0113 00001c4 	addi	%r30, %r30, 3
0114 00001c8 	jal	min_caml_create_array
0115 00001cc 	addi	%r30, %r30, -3
0116 00001d0 	lw	%r31, 2(%r30)
0117 00001d4 	addi	%r1, %r0, 1
0118 00001d8 	la	%r2, l.612
0120 00001e0 	lw.s	%f0, 0(%r2)
0121 00001e4 	sw	%r31, 2(%r30)
0122 00001e8 	addi	%r30, %r30, 3
0123 00001ec 	jal	min_caml_create_float_array
0124 00001f0 	addi	%r30, %r30, -3
0125 00001f4 	lw	%r31, 2(%r30)
0126 00001f8 	addi	%r1, %r0, 1
0127 00001fc 	addi	%r2, %r0, 0
0128 0000200 	sw	%r31, 2(%r30)
0129 0000204 	addi	%r30, %r30, 3
0130 0000208 	jal	min_caml_create_array
0131 000020c 	addi	%r30, %r30, -3
0132 0000210 	lw	%r31, 2(%r30)
0133 0000214 	addi	%r1, %r0, 1
0134 0000218 	la	%r2, l.633
0136 0000220 	lw.s	%f0, 0(%r2)
0137 0000224 	sw	%r31, 2(%r30)
0138 0000228 	addi	%r30, %r30, 3
0139 000022c 	jal	min_caml_create_float_array
0140 0000230 	addi	%r30, %r30, -3
0141 0000234 	lw	%r31, 2(%r30)
0142 0000238 	addi	%r1, %r0, 3
0143 000023c 	la	%r2, l.612
0145 0000244 	lw.s	%f0, 0(%r2)
0146 0000248 	sw	%r31, 2(%r30)
0147 000024c 	addi	%r30, %r30, 3
0148 0000250 	jal	min_caml_create_float_array
0149 0000254 	addi	%r30, %r30, -3
0150 0000258 	lw	%r31, 2(%r30)
0151 000025c 	addi	%r1, %r0, 1
0152 0000260 	addi	%r2, %r0, 0
0153 0000264 	sw	%r31, 2(%r30)
0154 0000268 	addi	%r30, %r30, 3
0155 000026c 	jal	min_caml_create_array
0156 0000270 	addi	%r30, %r30, -3
0157 0000274 	lw	%r31, 2(%r30)
0158 0000278 	addi	%r1, %r0, 3
0159 000027c 	la	%r2, l.612
0161 0000284 	lw.s	%f0, 0(%r2)
0162 0000288 	sw	%r31, 2(%r30)
0163 000028c 	addi	%r30, %r30, 3
0164 0000290 	jal	min_caml_create_float_array
0165 0000294 	addi	%r30, %r30, -3
0166 0000298 	lw	%r31, 2(%r30)
0167 000029c 	addi	%r1, %r0, 3
0168 00002a0 	la	%r2, l.612
0170 00002a8 	lw.s	%f0, 0(%r2)
0171 00002ac 	sw	%r31, 2(%r30)
0172 00002b0 	addi	%r30, %r30, 3
0173 00002b4 	jal	min_caml_create_float_array
0174 00002b8 	addi	%r30, %r30, -3
0175 00002bc 	lw	%r31, 2(%r30)
0176 00002c0 	addi	%r1, %r0, 3
0177 00002c4 	la	%r2, l.612
0179 00002cc 	lw.s	%f0, 0(%r2)
0180 00002d0 	sw	%r31, 2(%r30)
0181 00002d4 	addi	%r30, %r30, 3
0182 00002d8 	jal	min_caml_create_float_array
0183 00002dc 	addi	%r30, %r30, -3
0184 00002e0 	lw	%r31, 2(%r30)
0185 00002e4 	addi	%r1, %r0, 3
0186 00002e8 	la	%r2, l.612
0188 00002f0 	lw.s	%f0, 0(%r2)
0189 00002f4 	sw	%r31, 2(%r30)
0190 00002f8 	addi	%r30, %r30, 3
0191 00002fc 	jal	min_caml_create_float_array
0192 0000300 	addi	%r30, %r30, -3
0193 0000304 	lw	%r31, 2(%r30)
0194 0000308 	addi	%r1, %r0, 2
0195 000030c 	addi	%r2, %r0, 0
0196 0000310 	sw	%r31, 2(%r30)
0197 0000314 	addi	%r30, %r30, 3
0198 0000318 	jal	min_caml_create_array
0199 000031c 	addi	%r30, %r30, -3
0200 0000320 	lw	%r31, 2(%r30)
0201 0000324 	addi	%r1, %r0, 2
0202 0000328 	addi	%r2, %r0, 0
0203 000032c 	sw	%r31, 2(%r30)
0204 0000330 	addi	%r30, %r30, 3
0205 0000334 	jal	min_caml_create_array
0206 0000338 	addi	%r30, %r30, -3
0207 000033c 	lw	%r31, 2(%r30)
0208 0000340 	addi	%r1, %r0, 1
0209 0000344 	la	%r2, l.612
0211 000034c 	lw.s	%f0, 0(%r2)
0212 0000350 	sw	%r31, 2(%r30)
0213 0000354 	addi	%r30, %r30, 3
0214 0000358 	jal	min_caml_create_float_array
0215 000035c 	addi	%r30, %r30, -3
0216 0000360 	lw	%r31, 2(%r30)
0217 0000364 	addi	%r1, %r0, 3
0218 0000368 	la	%r2, l.612
0220 0000370 	lw.s	%f0, 0(%r2)
0221 0000374 	sw	%r31, 2(%r30)
0222 0000378 	addi	%r30, %r30, 3
0223 000037c 	jal	min_caml_create_float_array
0224 0000380 	addi	%r30, %r30, -3
0225 0000384 	lw	%r31, 2(%r30)
0226 0000388 	addi	%r1, %r0, 3
0227 000038c 	la	%r2, l.612
0229 0000394 	lw.s	%f0, 0(%r2)
0230 0000398 	sw	%r31, 2(%r30)
0231 000039c 	addi	%r30, %r30, 3
0232 00003a0 	jal	min_caml_create_float_array
0233 00003a4 	addi	%r30, %r30, -3
0234 00003a8 	lw	%r31, 2(%r30)
0235 00003ac 	addi	%r1, %r0, 3
0236 00003b0 	la	%r2, l.612
0238 00003b8 	lw.s	%f0, 0(%r2)
0239 00003bc 	sw	%r31, 2(%r30)
0240 00003c0 	addi	%r30, %r30, 3
0241 00003c4 	jal	min_caml_create_float_array
0242 00003c8 	addi	%r30, %r30, -3
0243 00003cc 	lw	%r31, 2(%r30)
0244 00003d0 	addi	%r1, %r0, 3
0245 00003d4 	la	%r2, l.612
0247 00003dc 	lw.s	%f0, 0(%r2)
0248 00003e0 	sw	%r31, 2(%r30)
0249 00003e4 	addi	%r30, %r30, 3
0250 00003e8 	jal	min_caml_create_float_array
0251 00003ec 	addi	%r30, %r30, -3
0252 00003f0 	lw	%r31, 2(%r30)
0253 00003f4 	addi	%r1, %r0, 3
0254 00003f8 	la	%r2, l.612
0256 0000400 	lw.s	%f0, 0(%r2)
0257 0000404 	sw	%r31, 2(%r30)
0258 0000408 	addi	%r30, %r30, 3
0259 000040c 	jal	min_caml_create_float_array
0260 0000410 	addi	%r30, %r30, -3
0261 0000414 	lw	%r31, 2(%r30)
0262 0000418 	addi	%r1, %r0, 3
0263 000041c 	la	%r2, l.612
0265 0000424 	lw.s	%f0, 0(%r2)
0266 0000428 	sw	%r31, 2(%r30)
0267 000042c 	addi	%r30, %r30, 3
0268 0000430 	jal	min_caml_create_float_array
0269 0000434 	addi	%r30, %r30, -3
0270 0000438 	lw	%r31, 2(%r30)
0271 000043c 	addi	%r1, %r0, 0
0272 0000440 	la	%r2, l.612
0274 0000448 	lw.s	%f0, 0(%r2)
0275 000044c 	sw	%r31, 2(%r30)
0276 0000450 	addi	%r30, %r30, 3
0277 0000454 	jal	min_caml_create_float_array
0278 0000458 	addi	%r30, %r30, -3
0279 000045c 	lw	%r31, 2(%r30)
0280 0000460 	addi	%r2, %r1, 0
0281 0000464 	addi	%r1, %r0, 0
0282 0000468 	sw	%r2, 2(%r30)
0283 000046c 	sw	%r31, 3(%r30)
0284 0000470 	addi	%r30, %r30, 4
0285 0000474 	jal	min_caml_create_array
0286 0000478 	addi	%r30, %r30, -4
0287 000047c 	lw	%r31, 3(%r30)
0288 0000480 	addi	%r2, %r0, 0
0289 0000484 	addi	%r3, %r29, 0
0290 0000488 	addi	%r29, %r29, 2
0291 000048c 	sw	%r1, 1(%r3)
0292 0000490 	lw	%r1, 2(%r30)
0293 0000494 	sw	%r1, 0(%r3)
0294 0000498 	addi	%r1, %r3, 0
0295 000049c 	addi	%r26, %r2, 0
0296 00004a0 	addi	%r2, %r1, 0
0297 00004a4 	addi	%r1, %r26, 0
0298 00004a8 	sw	%r31, 3(%r30)
0299 00004ac 	addi	%r30, %r30, 4
0300 00004b0 	jal	min_caml_create_array
0301 00004b4 	addi	%r30, %r30, -4
0302 00004b8 	lw	%r31, 3(%r30)
0303 00004bc 	addi	%r2, %r1, 0
0304 00004c0 	addi	%r1, %r0, 5
0305 00004c4 	sw	%r31, 3(%r30)
0306 00004c8 	addi	%r30, %r30, 4
0307 00004cc 	jal	min_caml_create_array
0308 00004d0 	addi	%r30, %r30, -4
0309 00004d4 	lw	%r31, 3(%r30)
0310 00004d8 	addi	%r1, %r0, 0
0311 00004dc 	la	%r2, l.612
0313 00004e4 	lw.s	%f0, 0(%r2)
0314 00004e8 	sw	%r31, 3(%r30)
0315 00004ec 	addi	%r30, %r30, 4
0316 00004f0 	jal	min_caml_create_float_array
0317 00004f4 	addi	%r30, %r30, -4
0318 00004f8 	lw	%r31, 3(%r30)
0319 00004fc 	addi	%r2, %r0, 3
0320 0000500 	la	%r3, l.612
0322 0000508 	lw.s	%f0, 0(%r3)
0323 000050c 	sw	%r1, 3(%r30)
0324 0000510 	addi	%r1, %r2, 0
0325 0000514 	sw	%r31, 4(%r30)
0326 0000518 	addi	%r30, %r30, 5
0327 000051c 	jal	min_caml_create_float_array
0328 0000520 	addi	%r30, %r30, -5
0329 0000524 	lw	%r31, 4(%r30)
0330 0000528 	addi	%r1, %r0, 60
0331 000052c 	lw	%r2, 3(%r30)
0332 0000530 	sw	%r31, 4(%r30)
0333 0000534 	addi	%r30, %r30, 5
0334 0000538 	jal	min_caml_create_array
0335 000053c 	addi	%r30, %r30, -5
0336 0000540 	lw	%r31, 4(%r30)
0337 0000544 	addi	%r1, %r0, 0
0338 0000548 	la	%r2, l.612
0340 0000550 	lw.s	%f0, 0(%r2)
0341 0000554 	sw	%r31, 4(%r30)
0342 0000558 	addi	%r30, %r30, 5
0343 000055c 	jal	min_caml_create_float_array
0344 0000560 	addi	%r30, %r30, -5
0345 0000564 	lw	%r31, 4(%r30)
0346 0000568 	addi	%r2, %r1, 0
0347 000056c 	addi	%r1, %r0, 0
0348 0000570 	sw	%r2, 4(%r30)
0349 0000574 	sw	%r31, 5(%r30)
0350 0000578 	addi	%r30, %r30, 6
0351 000057c 	jal	min_caml_create_array
0352 0000580 	addi	%r30, %r30, -6
0353 0000584 	lw	%r31, 5(%r30)
0354 0000588 	addi	%r2, %r29, 0
0355 000058c 	addi	%r29, %r29, 2
0356 0000590 	sw	%r1, 1(%r2)
0357 0000594 	lw	%r1, 4(%r30)
0358 0000598 	sw	%r1, 0(%r2)
0359 000059c 	addi	%r1, %r2, 0
0360 00005a0 	addi	%r2, %r0, 180
0361 00005a4 	addi	%r3, %r0, 0
0362 00005a8 	la	%r4, l.612
0364 00005b0 	lw.s	%f0, 0(%r4)
0365 00005b4 	addi	%r4, %r29, 0
0366 00005b8 	addi	%r29, %r29, 3
0367 00005bc 	sw.s	%f0, 2(%r4)
0368 00005c0 	sw	%r1, 1(%r4)
0369 00005c4 	sw	%r3, 0(%r4)
0370 00005c8 	addi	%r1, %r4, 0
0371 00005cc 	addi	%r26, %r2, 0
0372 00005d0 	addi	%r2, %r1, 0
0373 00005d4 	addi	%r1, %r26, 0
0374 00005d8 	sw	%r31, 5(%r30)
0375 00005dc 	addi	%r30, %r30, 6
0376 00005e0 	jal	min_caml_create_array
0377 00005e4 	addi	%r30, %r30, -6
0378 00005e8 	lw	%r31, 5(%r30)
0379 00005ec 	addi	%r1, %r0, 1
0380 00005f0 	addi	%r2, %r0, 0
0381 00005f4 	sw	%r31, 5(%r30)
0382 00005f8 	addi	%r30, %r30, 6
0383 00005fc 	jal	min_caml_create_array
0384 0000600 	addi	%r30, %r30, -6
0385 0000604 	lw	%r31, 5(%r30)
0386 0000608 	addi	%r1, %r0, 300
0387 000060c 	addi	%r2, %r0, 0
0388 0000610 	itof	%f0, %r1
0389 0000614 	sw	%r2, 5(%r30)
0390 0000618 	sw	%r31, 6(%r30)
0391 000061c 	addi	%r30, %r30, 7
0392 0000620 	jal	dbl.316
0393 0000624 	addi	%r30, %r30, -7
0394 0000628 	lw	%r31, 6(%r30)
0395 000062c 	la	%r1, l.662
0397 0000634 	lw.s	%f1, 0(%r1)
0398 0000638 	div.s	%f0, %f0, %f1
0399 000063c 	la	%r1, l.664
0401 0000644 	lw.s	%f1, 0(%r1)
0402 0000648 	sub.s	%f0, %f0, %f1
0403 000064c 	lw	%r1, 5(%r30)
0404 0000650 	itof	%f1, %r1
0405 0000654 	sw.s	%f0, 6(%r30)
0406 0000658 	mov.s	%f0, %f1
0407 000065c 	sw	%r31, 7(%r30)
0408 0000660 	addi	%r30, %r30, 8
0409 0000664 	jal	dbl.316
0410 0000668 	addi	%r30, %r30, -8
0411 000066c 	lw	%r31, 7(%r30)
0412 0000670 	la	%r1, l.662
0414 0000678 	lw.s	%f1, 0(%r1)
0415 000067c 	div.s	%f0, %f0, %f1
0416 0000680 	la	%r1, l.667
0418 0000688 	lw.s	%f1, 0(%r1)
0419 000068c 	sub.s	%f5, %f0, %f1
0420 0000690 	addi	%r1, %r0, 1000
0421 0000694 	la	%r2, l.612
0423 000069c 	lw.s	%f0, 0(%r2)
0424 00006a0 	la	%r2, l.612
0426 00006a8 	lw.s	%f1, 0(%r2)
0427 00006ac 	la	%r2, l.612
0429 00006b4 	lw.s	%f2, 0(%r2)
0430 00006b8 	la	%r2, l.612
0432 00006c0 	lw.s	%f3, 0(%r2)
0433 00006c4 	lw.s	%f4, 6(%r30)
0434 00006c8 	sw	%r31, 7(%r30)
0435 00006cc 	addi	%r30, %r30, 8
0436 00006d0 	jal	iloop.322
0437 00006d4 	addi	%r30, %r30, -8
0438 00006d8 	lw	%r31, 7(%r30)
0439 00006dc 	in	%r1
0440 00006e0 	j	min_caml_start
0441 00006e4 dbl.316:
0441 00006e4 	add.s	%f0, %f0, %f0
0442 00006e8 	jr	%r31
0443 00006ec iloop.322:
0443 00006ec 	addi	%r26, %r0, 0
0444 00006f0 	bne	%r1, %r26, beq_else.686
0445 00006f4 	addi	%r1, %r0, 1
0446 00006f8 	j	min_caml_print_int
0447 00006fc beq_else.686:
0447 00006fc 	sub.s	%f2, %f2, %f3
0448 0000700 	add.s	%f2, %f2, %f4
0449 0000704 	sw.s	%f4, 0(%r30)
0450 0000708 	sw	%r1, 1(%r30)
0451 000070c 	sw.s	%f2, 2(%r30)
0452 0000710 	sw.s	%f5, 3(%r30)
0453 0000714 	sw.s	%f1, 4(%r30)
0454 0000718 	sw	%r31, 5(%r30)
0455 000071c 	addi	%r30, %r30, 6
0456 0000720 	jal	dbl.316
0457 0000724 	addi	%r30, %r30, -6
0458 0000728 	lw	%r31, 5(%r30)
0459 000072c 	lw.s	%f1, 4(%r30)
0460 0000730 	mul.s	%f0, %f0, %f1
0461 0000734 	lw.s	%f5, 3(%r30)
0462 0000738 	add.s	%f1, %f0, %f5
0463 000073c 	lw.s	%f0, 2(%r30)
0464 0000740 	mul.s	%f2, %f0, %f0
0465 0000744 	mul.s	%f3, %f1, %f1
0466 0000748 	add.s	%f4, %f2, %f3
0467 000074c 	la	%r1, l.610
0469 0000754 	lw.s	%f6, 0(%r1)
0470 0000758 	c.le.s	0, %f4, %f6
0471 000075c 	bf.s	0, bt.s_else.687
0472 0000760 	lw	%r1, 1(%r30)
0473 0000764 	addi	%r1, %r1, -1
0474 0000768 	lw.s	%f4, 0(%r30)
0475 000076c 	j	iloop.322
0476 0000770 bt.s_else.687:
0476 0000770 	addi	%r1, %r0, 0
0477 0000774 	j	min_caml_print_int
0478 0000778 min_caml_create_array:
0478 0000778 	ori	%r3, %r1, 0
0479 000077c 	ori	%r1, %r29, 0
0480 0000780 create_array_loop:
0480 0000780 	bne	%r3, %r0, create_array_cont
0481 0000784 	jr	%r31
0482 0000788 create_array_cont:
0482 0000788 	sw	%r2, 0(%r29)
0483 000078c 	addi  	%r3, %r3, -1
0484 0000790 	addi	%r29, %r29, 1
0485 0000794 	j	create_array_loop
0486 0000798 min_caml_create_float_array:
0486 0000798 	ori	%r2, %r1, 0
0487 000079c 	ori	%r1, %r29, 0
0488 00007a0 create_float_array_loop:
0488 00007a0 	bne	%r2, %r0, create_float_array_cont
0489 00007a4 	jr	%r31
0490 00007a8 create_float_array_cont:
0490 00007a8 	sw.s	%f0, 0(%r29)
0491 00007ac 	addi	%r2, %r2, -1
0492 00007b0 	addi	%r29, %r29, 1
0493 00007b4 	j	create_float_array_loop
0494 00007b8 min_caml_fneg:
0494 00007b8 	neg.s	%f0, %f0
0495 00007bc 	jr	%r31
0496 00007c0 min_caml_read_int:
0496 00007c0 	lui	%r1, 0
0497 00007c4 	in	%r1
0498 00007c8 	lui	%r2, 0
0499 00007cc 	in	%r2
0500 00007d0 	sll	%r2, %r2, 8
0501 00007d4 	or	%r1, %r1, %r2
0502 00007d8 	lui	%r2, 0
0503 00007dc 	in	%r2
0504 00007e0 	sll	%r2, %r2, 16
0505 00007e4 	or	%r1, %r1, %r2
0506 00007e8 	lui	%r2, 0
0507 00007ec 	in	%r2
0508 00007f0 	sll	%r2, %r2, 24
0509 00007f4 	or	%r1, %r1, %r2
0510 00007f8 	jr	%r31
0511 00007fc min_caml_read_float:
0511 00007fc 	lui	%r1, 0
0512 0000800 	in	%r1
0513 0000804 	lui	%r2, 0
0514 0000808 	in	%r2
0515 000080c 	sll	%r2, %r2, 8
0516 0000810 	or	%r1, %r1, %r2
0517 0000814 	lui	%r2, 0
0518 0000818 	in	%r2
0519 000081c 	sll	%r2, %r2, 16
0520 0000820 	or	%r1, %r1, %r2
0521 0000824 	lui	%r2, 0
0522 0000828 	in	%r2
0523 000082c 	sll	%r2, %r2, 24
0524 0000830 	or	%r1, %r1, %r2
0525 0000834 	sw	%r1, 0(%r30)
0526 0000838 	lw.s	%f0, 0(%r30)
0527 000083c 	jr	%r31
0528 0000840 min_caml_print_int:
0528 0000840 	out	%r1
0529 0000844 	jr	%r31
