0000 0000000 min_caml_start:
0000 0000000 	la	%r1, l.402
0002 0000008 	lw.s	%f0, 0(%r1)
0003 000000c 	sw	%r31, 0(%r30)
0004 0000010 	addi	%r30, %r30, 1
0005 0000014 	jal	dbl.201
0006 0000018 	addi	%r30, %r30, -1
0007 000001c 	lw	%r31, 0(%r30)
0008 0000020 	la	%r1, l.404
0010 0000028 	lw.s	%f1, 0(%r1)
0011 000002c 	div.s	%f0, %f0, %f1
0012 0000030 	la	%r1, l.406
0014 0000038 	lw.s	%f1, 0(%r1)
0015 000003c 	sub.s	%f0, %f0, %f1
0016 0000040 	la	%r1, l.408
0018 0000048 	lw.s	%f1, 0(%r1)
0019 000004c 	sw.s	%f0, 0(%r30)
0020 0000050 	mov.s	%f0, %f1
0021 0000054 	sw	%r31, 1(%r30)
0022 0000058 	addi	%r30, %r30, 2
0023 000005c 	jal	dbl.201
0024 0000060 	addi	%r30, %r30, -2
0025 0000064 	lw	%r31, 1(%r30)
0026 0000068 	la	%r1, l.404
0028 0000070 	lw.s	%f1, 0(%r1)
0029 0000074 	div.s	%f0, %f0, %f1
0030 0000078 	la	%r1, l.411
0032 0000080 	lw.s	%f1, 0(%r1)
0033 0000084 	sub.s	%f5, %f0, %f1
0034 0000088 	addi	%r1, %r0, 1000
0035 000008c 	la	%r2, l.408
0037 0000094 	lw.s	%f0, 0(%r2)
0038 0000098 	la	%r2, l.408
0040 00000a0 	lw.s	%f1, 0(%r2)
0041 00000a4 	la	%r2, l.408
0043 00000ac 	lw.s	%f2, 0(%r2)
0044 00000b0 	la	%r2, l.408
0046 00000b8 	lw.s	%f3, 0(%r2)
0047 00000bc 	lw.s	%f4, 0(%r30)
0048 00000c0 	sw	%r31, 1(%r30)
0049 00000c4 	addi	%r30, %r30, 2
0050 00000c8 	jal	iloop.207
0051 00000cc 	addi	%r30, %r30, -2
0052 00000d0 	lw	%r31, 1(%r30)
0053 00000d4 	in	%r1
0054 00000d8 	j	min_caml_start
0055 00000dc dbl.201:
0055 00000dc 	add.s	%f0, %f0, %f0
0056 00000e0 	jr	%r31
0057 00000e4 iloop.207:
0057 00000e4 	addi	%r26, %r0, 0
0058 00000e8 	bne	%r1, %r26, beq_else.425
0059 00000ec 	addi	%r1, %r0, 1
0060 00000f0 	j	min_caml_print_int
0061 00000f4 beq_else.425:
0061 00000f4 	sub.s	%f2, %f2, %f3
0062 00000f8 	add.s	%f2, %f2, %f4
0063 00000fc 	sw.s	%f4, 0(%r30)
0064 0000100 	sw	%r1, 1(%r30)
0065 0000104 	sw.s	%f2, 2(%r30)
0066 0000108 	sw.s	%f5, 3(%r30)
0067 000010c 	sw.s	%f1, 4(%r30)
0068 0000110 	sw	%r31, 5(%r30)
0069 0000114 	addi	%r30, %r30, 6
0070 0000118 	jal	dbl.201
0071 000011c 	addi	%r30, %r30, -6
0072 0000120 	lw	%r31, 5(%r30)
0073 0000124 	lw.s	%f1, 4(%r30)
0074 0000128 	mul.s	%f0, %f0, %f1
0075 000012c 	lw.s	%f5, 3(%r30)
0076 0000130 	add.s	%f1, %f0, %f5
0077 0000134 	lw.s	%f0, 2(%r30)
0078 0000138 	mul.s	%f2, %f0, %f0
0079 000013c 	mul.s	%f3, %f1, %f1
0080 0000140 	add.s	%f4, %f2, %f3
0081 0000144 	la	%r1, l.400
0083 000014c 	lw.s	%f6, 0(%r1)
0084 0000150 	c.le.s	0, %f4, %f6
0085 0000154 	bf.s	0, bt.s_else.426
0086 0000158 	lw	%r1, 1(%r30)
0087 000015c 	addi	%r1, %r1, -1
0088 0000160 	lw.s	%f4, 0(%r30)
0089 0000164 	j	iloop.207
0090 0000168 bt.s_else.426:
0090 0000168 	addi	%r1, %r0, 0
0091 000016c 	j	min_caml_print_int
0092 0000170 min_caml_print_int:
0092 0000170 	out	%r1
0093 0000174 	jr	%r31
